target datalayout = "e-m:e-p270:32:32-p271:32:32-p272:64:64-i64:64-i128:128-f80:128-n8:16:32:64-S128"
target triple = "x86_64-pc-linux-gnu"

%struct.construct_data_st = type { ptr, ptr, i32, i32, ptr, ptr }
%struct.ossl_method_construct_method_st = type { ptr, ptr, ptr, ptr, ptr, ptr, ptr }

; Function Attrs: nounwind uwtable
define ptr @ossl_method_construct(ptr noundef %0, i32 noundef %1, ptr noundef %2, i32 noundef %3, ptr noundef %4, ptr noundef %5) #0 {
  %7 = alloca ptr, align 8
  %8 = alloca i32, align 4
  %9 = alloca ptr, align 8
  %10 = alloca i32, align 4
  %11 = alloca ptr, align 8
  %12 = alloca ptr, align 8
  %13 = alloca ptr, align 8
  %14 = alloca ptr, align 8
  %15 = alloca %struct.construct_data_st, align 8
  store ptr %0, ptr %7, align 8, !tbaa !3
  store i32 %1, ptr %8, align 4, !tbaa !8
  store ptr %2, ptr %9, align 8, !tbaa !10
  store i32 %3, ptr %10, align 4, !tbaa !8
  store ptr %4, ptr %11, align 8, !tbaa !12
  store ptr %5, ptr %12, align 8, !tbaa !14
  call void @llvm.lifetime.start.p0(i64 8, ptr %13) #4
  store ptr null, ptr %13, align 8, !tbaa !14
  call void @llvm.lifetime.start.p0(i64 8, ptr %14) #4
  %16 = load ptr, ptr %9, align 8, !tbaa !10
  %17 = icmp ne ptr %16, null
  br i1 %17, label %18, label %21

18:                                               ; preds = %6
  %19 = load ptr, ptr %9, align 8, !tbaa !10
  %20 = load ptr, ptr %19, align 8, !tbaa !15
  br label %22

21:                                               ; preds = %6
  br label %22

22:                                               ; preds = %21, %18
  %23 = phi ptr [ %20, %18 ], [ null, %21 ]
  store ptr %23, ptr %14, align 8, !tbaa !15
  call void @llvm.lifetime.start.p0(i64 40, ptr %15) #4
  %24 = getelementptr inbounds nuw %struct.construct_data_st, ptr %15, i32 0, i32 1
  store ptr null, ptr %24, align 8, !tbaa !17
  %25 = load i32, ptr %10, align 4, !tbaa !8
  %26 = getelementptr inbounds nuw %struct.construct_data_st, ptr %15, i32 0, i32 3
  store i32 %25, ptr %26, align 4, !tbaa !20
  %27 = load ptr, ptr %11, align 8, !tbaa !12
  %28 = getelementptr inbounds nuw %struct.construct_data_st, ptr %15, i32 0, i32 4
  store ptr %27, ptr %28, align 8, !tbaa !21
  %29 = load ptr, ptr %12, align 8, !tbaa !14
  %30 = getelementptr inbounds nuw %struct.construct_data_st, ptr %15, i32 0, i32 5
  store ptr %29, ptr %30, align 8, !tbaa !22
  %31 = load ptr, ptr %7, align 8, !tbaa !3
  %32 = load i32, ptr %8, align 4, !tbaa !8
  %33 = load ptr, ptr %14, align 8, !tbaa !15
  call void @ossl_algorithm_do_all(ptr noundef %31, i32 noundef %32, ptr noundef %33, ptr noundef @ossl_method_construct_precondition, ptr noundef @ossl_method_construct_reserve_store, ptr noundef @ossl_method_construct_this, ptr noundef @ossl_method_construct_unreserve_store, ptr noundef @ossl_method_construct_postcondition, ptr noundef %15)
  %34 = getelementptr inbounds nuw %struct.construct_data_st, ptr %15, i32 0, i32 1
  %35 = load ptr, ptr %34, align 8, !tbaa !17
  %36 = icmp ne ptr %35, null
  br i1 %36, label %37, label %46

37:                                               ; preds = %22
  %38 = load ptr, ptr %11, align 8, !tbaa !12
  %39 = getelementptr inbounds nuw %struct.ossl_method_construct_method_st, ptr %38, i32 0, i32 3
  %40 = load ptr, ptr %39, align 8, !tbaa !23
  %41 = getelementptr inbounds nuw %struct.construct_data_st, ptr %15, i32 0, i32 1
  %42 = load ptr, ptr %41, align 8, !tbaa !17
  %43 = load ptr, ptr %9, align 8, !tbaa !10
  %44 = load ptr, ptr %12, align 8, !tbaa !14
  %45 = call ptr %40(ptr noundef %42, ptr noundef %43, ptr noundef %44)
  store ptr %45, ptr %13, align 8, !tbaa !14
  br label %46

46:                                               ; preds = %37, %22
  %47 = load ptr, ptr %13, align 8, !tbaa !14
  %48 = icmp eq ptr %47, null
  br i1 %48, label %49, label %56

49:                                               ; preds = %46
  %50 = load ptr, ptr %11, align 8, !tbaa !12
  %51 = getelementptr inbounds nuw %struct.ossl_method_construct_method_st, ptr %50, i32 0, i32 3
  %52 = load ptr, ptr %51, align 8, !tbaa !23
  %53 = load ptr, ptr %9, align 8, !tbaa !10
  %54 = load ptr, ptr %12, align 8, !tbaa !14
  %55 = call ptr %52(ptr noundef null, ptr noundef %53, ptr noundef %54)
  store ptr %55, ptr %13, align 8, !tbaa !14
  br label %56

56:                                               ; preds = %49, %46
  %57 = load ptr, ptr %13, align 8, !tbaa !14
  call void @llvm.lifetime.end.p0(i64 40, ptr %15) #4
  call void @llvm.lifetime.end.p0(i64 8, ptr %14) #4
  call void @llvm.lifetime.end.p0(i64 8, ptr %13) #4
  ret ptr %57
}