; Function Attrs: nounwind uwtable
define ptr @ossl_method_construct(ptr noundef %0, i32 noundef %1, ptr noundef %2, i32 noundef %3, ptr noundef %4, ptr noundef %5) local_unnamed_addr #0 {
  %7 = alloca %struct.construct_data_st, align 8
  %.not = icmp eq ptr %2, null
  br i1 %.not, label %10, label %8

8:                                                ; preds = %6
  %9 = load ptr, ptr %2, align 8, !tbaa !3
  br label %10

10:                                               ; preds = %6, %8
  %11 = phi ptr [ %9, %8 ], [ null, %6 ]
  call void @llvm.lifetime.start.p0(i64 40, ptr nonnull %7) #3
  %12 = getelementptr inbounds nuw i8, ptr %7, i64 8
  store ptr null, ptr %12, align 8, !tbaa !8
  %13 = getelementptr inbounds nuw i8, ptr %7, i64 20
  store i32 %3, ptr %13, align 4, !tbaa !14
  %14 = getelementptr inbounds nuw i8, ptr %7, i64 24
  store ptr %4, ptr %14, align 8, !tbaa !15
  %15 = getelementptr inbounds nuw i8, ptr %7, i64 32
  store ptr %5, ptr %15, align 8, !tbaa !16
  call void @ossl_algorithm_do_all(ptr noundef %0, i32 noundef %1, ptr noundef %11, ptr noundef nonnull @ossl_method_construct_precondition, ptr noundef nonnull @ossl_method_construct_reserve_store, ptr noundef nonnull @ossl_method_construct_this, ptr noundef nonnull @ossl_method_construct_unreserve_store, ptr noundef nonnull @ossl_method_construct_postcondition, ptr noundef nonnull %7) #3
  %16 = load ptr, ptr %12, align 8, !tbaa !8
  %.not17 = icmp eq ptr %16, null
  br i1 %.not17, label %.thread, label %17

17:                                               ; preds = %10
  %18 = getelementptr inbounds nuw i8, ptr %4, i64 24
  %19 = load ptr, ptr %18, align 8, !tbaa !17
  %20 = call ptr %19(ptr noundef nonnull %16, ptr noundef %2, ptr noundef %5) #3
  %21 = icmp eq ptr %20, null
  br i1 %21, label %.thread, label %25

.thread:                                          ; preds = %10, %17
  %22 = getelementptr inbounds nuw i8, ptr %4, i64 24
  %23 = load ptr, ptr %22, align 8, !tbaa !17
  %24 = call ptr %23(ptr noundef null, ptr noundef %2, ptr noundef %5) #3
  br label %25

25:                                               ; preds = %.thread, %17
  %.1 = phi ptr [ %24, %.thread ], [ %20, %17 ]
  call void @llvm.lifetime.end.p0(i64 40, ptr nonnull %7) #3
  ret ptr %.1
}